; Function Attrs: mustprogress uwtable
define hidden noundef zeroext i1 @_ZNK6params8containsEPKc(ptr nocapture noundef nonnull readonly align 8 dereferenceable(12) %this, ptr noundef %k) local_unnamed_addr #3 align 2 personality ptr @__gxx_personality_v0 {
entry:
  %ref.tmp.i = alloca %"class.std::__cxx11::basic_string", align 8
  %0 = load ptr, ptr %this, align 8
  %cmp.i.i = icmp eq ptr %0, null
  br i1 %cmp.i.i, label %return, label %_ZNK6params5emptyEv.exit

_ZNK6params5emptyEv.exit:                         ; preds = %entry
  %arrayidx.i.i = getelementptr inbounds i8, ptr %0, i64 -4
  %1 = load i32, ptr %arrayidx.i.i, align 4
  %cmp3.i.i = icmp eq i32 %1, 0
  br i1 %cmp3.i.i, label %return, label %for.body.lr.ph

for.body.lr.ph:                                   ; preds = %_ZNK6params5emptyEv.exit
  %2 = zext i32 %1 to i64
  %add.ptr.i = getelementptr inbounds %"struct.std::pair", ptr %0, i64 %2
  %cmp1.i = icmp eq ptr %k, null
  br i1 %cmp1.i, label %for.body.us, label %for.body

for.body.us:                                      ; preds = %for.body.lr.ph, %for.body.us
  %it.010.us = phi ptr [ %incdec.ptr.us, %for.body.us ], [ %0, %for.body.lr.ph ]
  call void @llvm.lifetime.start.p0(i64 32, ptr nonnull %ref.tmp.i)
  %3 = load ptr, ptr %it.010.us, align 8
  %cmp.i.us = icmp eq ptr %3, null
  call void @llvm.lifetime.end.p0(i64 32, ptr nonnull %ref.tmp.i)
  %incdec.ptr.us = getelementptr inbounds i8, ptr %it.010.us, i64 24
  %cmp.not.us = icmp eq ptr %incdec.ptr.us, %add.ptr.i
  %or.cond = select i1 %cmp.i.us, i1 true, i1 %cmp.not.us
  br i1 %or.cond, label %return, label %for.body.us, !llvm.loop !37

for.body:                                         ; preds = %for.body.lr.ph, %for.inc
  %it.010 = phi ptr [ %incdec.ptr, %for.inc ], [ %0, %for.body.lr.ph ]
  call void @llvm.lifetime.start.p0(i64 32, ptr nonnull %ref.tmp.i)
  %4 = load ptr, ptr %it.010, align 8
  %cmp.i = icmp eq ptr %4, null
  br i1 %cmp.i, label %_ZeqRK6symbolPKc.exit.thread7, label %if.end6.i

_ZeqRK6symbolPKc.exit.thread7:                    ; preds = %for.body
  call void @llvm.lifetime.end.p0(i64 32, ptr nonnull %ref.tmp.i)
  br label %for.inc

if.end6.i:                                        ; preds = %for.body
  %5 = ptrtoint ptr %4 to i64
  %and.i.i = and i64 %5, 7
  %cmp.i.i5 = icmp eq i64 %and.i.i, 1
  br i1 %cmp.i.i5, label %if.end11.i, label %_ZeqRK6symbolPKc.exit

if.end11.i:                                       ; preds = %if.end6.i
  call void @_ZNK6symbol3strB5cxx11Ev(ptr nonnull sret(%"class.std::__cxx11::basic_string") align 8 %ref.tmp.i, ptr noundef nonnull align 8 dereferenceable(8) %it.010)
  %call.i.i = call noundef i32 @_ZNKSt7__cxx1112basic_stringIcSt11char_traitsIcESaIcEE7compareEPKc(ptr noundef nonnull align 8 dereferenceable(32) %ref.tmp.i, ptr noundef nonnull %k) #15
  %cmp.i9.i = icmp eq i32 %call.i.i, 0
  call void @_ZNSt7__cxx1112basic_stringIcSt11char_traitsIcESaIcEED1Ev(ptr noundef nonnull align 8 dereferenceable(32) %ref.tmp.i) #15
  call void @llvm.lifetime.end.p0(i64 32, ptr nonnull %ref.tmp.i)
  br i1 %cmp.i9.i, label %return, label %for.inc

_ZeqRK6symbolPKc.exit:                            ; preds = %if.end6.i
  %call9.i = call i32 @strcmp(ptr noundef nonnull dereferenceable(1) %4, ptr noundef nonnull dereferenceable(1) %k) #18
  %cmp10.i = icmp eq i32 %call9.i, 0
  call void @llvm.lifetime.end.p0(i64 32, ptr nonnull %ref.tmp.i)
  br i1 %cmp10.i, label %return, label %for.inc

for.inc:                                          ; preds = %if.end11.i, %_ZeqRK6symbolPKc.exit.thread7, %_ZeqRK6symbolPKc.exit
  %incdec.ptr = getelementptr inbounds i8, ptr %it.010, i64 24
  %cmp.not = icmp eq ptr %incdec.ptr, %add.ptr.i
  br i1 %cmp.not, label %return, label %for.body, !llvm.loop !37

return:                                           ; preds = %_ZeqRK6symbolPKc.exit, %for.inc, %if.end11.i, %for.body.us, %entry, %_ZNK6params5emptyEv.exit
  %retval.0 = phi i1 [ false, %_ZNK6params5emptyEv.exit ], [ false, %entry ], [ %cmp.i.us, %for.body.us ], [ true, %_ZeqRK6symbolPKc.exit ], [ false, %for.inc ], [ true, %if.end11.i ]
  ret i1 %retval.0
}